
Extras.elf:     file format elf32-avr

Sections:
Idx Name          Size      VMA       LMA       File off  Algn
  0 .data         00000000  00800100  00800100  00000288  2**0
                  CONTENTS, ALLOC, LOAD, DATA
  1 .text         00000234  00000000  00000000  00000054  2**1
                  CONTENTS, ALLOC, LOAD, READONLY, CODE
  2 .comment      00000030  00000000  00000000  00000288  2**0
                  CONTENTS, READONLY
  3 .note.gnu.avr.deviceinfo 00000040  00000000  00000000  000002b8  2**2
                  CONTENTS, READONLY
  4 .debug_aranges 00000048  00000000  00000000  000002f8  2**0
                  CONTENTS, READONLY, DEBUGGING
  5 .debug_info   00000a72  00000000  00000000  00000340  2**0
                  CONTENTS, READONLY, DEBUGGING
  6 .debug_abbrev 0000084a  00000000  00000000  00000db2  2**0
                  CONTENTS, READONLY, DEBUGGING
  7 .debug_line   000003d2  00000000  00000000  000015fc  2**0
                  CONTENTS, READONLY, DEBUGGING
  8 .debug_frame  00000080  00000000  00000000  000019d0  2**2
                  CONTENTS, READONLY, DEBUGGING
  9 .debug_str    00000489  00000000  00000000  00001a50  2**0
                  CONTENTS, READONLY, DEBUGGING
 10 .debug_loc    0000034d  00000000  00000000  00001ed9  2**0
                  CONTENTS, READONLY, DEBUGGING
 11 .debug_ranges 00000038  00000000  00000000  00002226  2**0
                  CONTENTS, READONLY, DEBUGGING

Disassembly of section .text:

00000000 <__vectors>:
   0:	0c 94 3e 00 	jmp	0x7c	; 0x7c <__ctors_end>
   4:	0c 94 48 00 	jmp	0x90	; 0x90 <__bad_interrupt>
   8:	0c 94 48 00 	jmp	0x90	; 0x90 <__bad_interrupt>
   c:	0c 94 48 00 	jmp	0x90	; 0x90 <__bad_interrupt>
  10:	0c 94 48 00 	jmp	0x90	; 0x90 <__bad_interrupt>
  14:	0c 94 48 00 	jmp	0x90	; 0x90 <__bad_interrupt>
  18:	0c 94 48 00 	jmp	0x90	; 0x90 <__bad_interrupt>
  1c:	0c 94 48 00 	jmp	0x90	; 0x90 <__bad_interrupt>
  20:	0c 94 48 00 	jmp	0x90	; 0x90 <__bad_interrupt>
  24:	0c 94 48 00 	jmp	0x90	; 0x90 <__bad_interrupt>
  28:	0c 94 48 00 	jmp	0x90	; 0x90 <__bad_interrupt>
  2c:	0c 94 48 00 	jmp	0x90	; 0x90 <__bad_interrupt>
  30:	0c 94 48 00 	jmp	0x90	; 0x90 <__bad_interrupt>
  34:	0c 94 48 00 	jmp	0x90	; 0x90 <__bad_interrupt>
  38:	0c 94 48 00 	jmp	0x90	; 0x90 <__bad_interrupt>
  3c:	0c 94 48 00 	jmp	0x90	; 0x90 <__bad_interrupt>
  40:	0c 94 48 00 	jmp	0x90	; 0x90 <__bad_interrupt>
  44:	0c 94 48 00 	jmp	0x90	; 0x90 <__bad_interrupt>
  48:	0c 94 48 00 	jmp	0x90	; 0x90 <__bad_interrupt>
  4c:	0c 94 48 00 	jmp	0x90	; 0x90 <__bad_interrupt>
  50:	0c 94 48 00 	jmp	0x90	; 0x90 <__bad_interrupt>
  54:	0c 94 48 00 	jmp	0x90	; 0x90 <__bad_interrupt>
  58:	0c 94 48 00 	jmp	0x90	; 0x90 <__bad_interrupt>
  5c:	0c 94 48 00 	jmp	0x90	; 0x90 <__bad_interrupt>
  60:	0c 94 48 00 	jmp	0x90	; 0x90 <__bad_interrupt>
  64:	0c 94 48 00 	jmp	0x90	; 0x90 <__bad_interrupt>
  68:	0c 94 48 00 	jmp	0x90	; 0x90 <__bad_interrupt>
  6c:	0c 94 48 00 	jmp	0x90	; 0x90 <__bad_interrupt>
  70:	0c 94 48 00 	jmp	0x90	; 0x90 <__bad_interrupt>
  74:	0c 94 48 00 	jmp	0x90	; 0x90 <__bad_interrupt>
  78:	0c 94 48 00 	jmp	0x90	; 0x90 <__bad_interrupt>

0000007c <__ctors_end>:
  7c:	11 24       	eor	r1, r1
  7e:	1f be       	out	0x3f, r1	; 63
  80:	cf ef       	ldi	r28, 0xFF	; 255
  82:	d0 e1       	ldi	r29, 0x10	; 16
  84:	de bf       	out	0x3e, r29	; 62
  86:	cd bf       	out	0x3d, r28	; 61
  88:	0e 94 ce 00 	call	0x19c	; 0x19c <main>
  8c:	0c 94 18 01 	jmp	0x230	; 0x230 <_exit>

00000090 <__bad_interrupt>:
  90:	0c 94 00 00 	jmp	0	; 0x0 <__vectors>

00000094 <measurePulse>:
unsigned long measurePulse()				// Function measures how long echo takes to receive input
{
	unsigned long time = 0;

	// Sends out a short trigger pulses
	PORTB &= ~(1 << TRIG_PIN);	
  94:	2b 98       	cbi	0x05, 3	; 5
	#else
		//round up by default
		__ticks_dc = (uint32_t)(ceil(fabs(__tmp)));
	#endif

	__builtin_avr_delay_cycles(__ticks_dc);
  96:	2d e0       	ldi	r18, 0x0D	; 13
  98:	2a 95       	dec	r18
  9a:	f1 f7       	brne	.-4      	; 0x98 <measurePulse+0x4>
  9c:	00 00       	nop
	_delay_us(2);
	PORTB |= (1 << TRIG_PIN);
  9e:	2b 9a       	sbi	0x05, 3	; 5

	while (PINB & (1 << ECHO_PIN))
  a0:	80 e0       	ldi	r24, 0x00	; 0
  a2:	90 e0       	ldi	r25, 0x00	; 0
  a4:	09 c0       	rjmp	.+18     	; 0xb8 <measurePulse+0x24>
  a6:	26 e0       	ldi	r18, 0x06	; 6
  a8:	2a 95       	dec	r18
  aa:	f1 f7       	brne	.-4      	; 0xa8 <measurePulse+0x14>
  ac:	00 c0       	rjmp	.+0      	; 0xae <measurePulse+0x1a>
  ae:	01 96       	adiw	r24, 0x01	; 1
	{
		_delay_us(1);
		time++;
		 if (time >= TIMEOUT)
  b0:	80 35       	cpi	r24, 0x50	; 80
  b2:	23 ec       	ldi	r18, 0xC3	; 195
  b4:	92 07       	cpc	r25, r18
  b6:	d9 f0       	breq	.+54     	; 0xee <measurePulse+0x5a>
	// Sends out a short trigger pulses
	PORTB &= ~(1 << TRIG_PIN);	
	_delay_us(2);
	PORTB |= (1 << TRIG_PIN);

	while (PINB & (1 << ECHO_PIN))
  b8:	1c 99       	sbic	0x03, 4	; 3
  ba:	f5 cf       	rjmp	.-22     	; 0xa6 <measurePulse+0x12>
  bc:	40 e0       	ldi	r20, 0x00	; 0
  be:	50 e0       	ldi	r21, 0x00	; 0
  c0:	ba 01       	movw	r22, r20
  c2:	0e c0       	rjmp	.+28     	; 0xe0 <measurePulse+0x4c>
  c4:	86 e0       	ldi	r24, 0x06	; 6
  c6:	8a 95       	dec	r24
  c8:	f1 f7       	brne	.-4      	; 0xc6 <measurePulse+0x32>
  ca:	00 c0       	rjmp	.+0      	; 0xcc <measurePulse+0x38>
	}
	time = 0;
	while (!(PINB & (1 << ECHO_PIN)))		
	{										
		_delay_us(1);
		time++;
  cc:	4f 5f       	subi	r20, 0xFF	; 255
  ce:	5f 4f       	sbci	r21, 0xFF	; 255
  d0:	6f 4f       	sbci	r22, 0xFF	; 255
  d2:	7f 4f       	sbci	r23, 0xFF	; 255
		if (time >= TIMEOUT)
  d4:	40 35       	cpi	r20, 0x50	; 80
  d6:	23 ec       	ldi	r18, 0xC3	; 195
  d8:	52 07       	cpc	r21, r18
  da:	61 05       	cpc	r22, r1
  dc:	71 05       	cpc	r23, r1
  de:	61 f0       	breq	.+24     	; 0xf8 <measurePulse+0x64>
		{
			return TIMEOUT;					// if time reaches TIMEOUT (50 millisecs), it stops
		}
	}
	time = 0;
	while (!(PINB & (1 << ECHO_PIN)))		
  e0:	1c 9b       	sbis	0x03, 4	; 3
  e2:	f0 cf       	rjmp	.-32     	; 0xc4 <measurePulse+0x30>
  e4:	34 2f       	mov	r19, r20
  e6:	25 2f       	mov	r18, r21
  e8:	86 2f       	mov	r24, r22
  ea:	97 2f       	mov	r25, r23
  ec:	09 c0       	rjmp	.+18     	; 0x100 <measurePulse+0x6c>
	{
		_delay_us(1);
		time++;
		 if (time >= TIMEOUT)
		{
			return TIMEOUT;					// if time reaches TIMEOUT (50 millisecs), it stops
  ee:	30 e5       	ldi	r19, 0x50	; 80
  f0:	23 ec       	ldi	r18, 0xC3	; 195
  f2:	80 e0       	ldi	r24, 0x00	; 0
  f4:	90 e0       	ldi	r25, 0x00	; 0
  f6:	04 c0       	rjmp	.+8      	; 0x100 <measurePulse+0x6c>
	{										
		_delay_us(1);
		time++;
		if (time >= TIMEOUT)
		{
			return TIMEOUT;					// if time reaches TIMEOUT (50 millisecs), it stops
  f8:	30 e5       	ldi	r19, 0x50	; 80
  fa:	23 ec       	ldi	r18, 0xC3	; 195
  fc:	80 e0       	ldi	r24, 0x00	; 0
  fe:	90 e0       	ldi	r25, 0x00	; 0
		}
	}
	return time;
}
 100:	63 2f       	mov	r22, r19
 102:	72 2f       	mov	r23, r18
 104:	08 95       	ret

00000106 <measureDistance>:
	


unsigned int measureDistance()				// This function uses how long Echo takes to get High (measurePulse) to measure distance
{
	unsigned long pulseTime = measurePulse();
 106:	0e 94 4a 00 	call	0x94	; 0x94 <measurePulse>

	if (pulseTime >= TIMEOUT)
 10a:	60 35       	cpi	r22, 0x50	; 80
 10c:	23 ec       	ldi	r18, 0xC3	; 195
 10e:	72 07       	cpc	r23, r18
 110:	81 05       	cpc	r24, r1
 112:	91 05       	cpc	r25, r1
 114:	40 f4       	brcc	.+16     	; 0x126 <measureDistance+0x20>
	{
		return MAX_DISTANCE;				// If Echo doesn't turn high in 50 millisecs, assume Max Distance has been reached
	}

	return pulseTime / TIME_PER_CM;			// otherwise covert time into distance
 116:	22 e3       	ldi	r18, 0x32	; 50
 118:	30 e0       	ldi	r19, 0x00	; 0
 11a:	40 e0       	ldi	r20, 0x00	; 0
 11c:	50 e0       	ldi	r21, 0x00	; 0
 11e:	0e 94 e7 00 	call	0x1ce	; 0x1ce <__udivmodsi4>
 122:	c9 01       	movw	r24, r18
 124:	08 95       	ret
{
	unsigned long pulseTime = measurePulse();

	if (pulseTime >= TIMEOUT)
	{
		return MAX_DISTANCE;				// If Echo doesn't turn high in 50 millisecs, assume Max Distance has been reached
 126:	8f e0       	ldi	r24, 0x0F	; 15
 128:	90 e0       	ldi	r25, 0x00	; 0
	}

	return pulseTime / TIME_PER_CM;			// otherwise covert time into distance
}
 12a:	08 95       	ret

0000012c <getBeepDelay>:
	unsigned int fast = 60;
	unsigned int slow = 700;
	unsigned long gap;
	unsigned long delayTime;				// Determines how quickly buzzer should beep, close obj -> small delay -> fast beeping
											// far obj -> big delay -> slow beeping
	if (distance >= MAX_DISTANCE)
 12c:	8f 30       	cpi	r24, 0x0F	; 15
 12e:	91 05       	cpc	r25, r1
 130:	b8 f4       	brcc	.+46     	; 0x160 <getBeepDelay+0x34>
	{
		return 0;							// If the obj is at max distance or more, don't beep
	}

	if (distance < 1)						// Ensures distance never becomes 0
 132:	00 97       	sbiw	r24, 0x00	; 0
 134:	11 f4       	brne	.+4      	; 0x13a <getBeepDelay+0xe>
	{
		distance = 1;
 136:	81 e0       	ldi	r24, 0x01	; 1
 138:	90 e0       	ldi	r25, 0x00	; 0
	}

	gap = slow - fast;						// Scales the beep delay based on distance
	delayTime = fast + (gap * (distance - 1)) / (MAX_DISTANCE - 1);

	return delayTime;
 13a:	9c 01       	movw	r18, r24
 13c:	21 50       	subi	r18, 0x01	; 1
 13e:	31 09       	sbc	r19, r1
 140:	a0 e8       	ldi	r26, 0x80	; 128
 142:	b2 e0       	ldi	r27, 0x02	; 2
 144:	0e 94 09 01 	call	0x212	; 0x212 <__umulhisi3>
 148:	2e e0       	ldi	r18, 0x0E	; 14
 14a:	30 e0       	ldi	r19, 0x00	; 0
 14c:	40 e0       	ldi	r20, 0x00	; 0
 14e:	50 e0       	ldi	r21, 0x00	; 0
 150:	0e 94 e7 00 	call	0x1ce	; 0x1ce <__udivmodsi4>
 154:	da 01       	movw	r26, r20
 156:	c9 01       	movw	r24, r18
 158:	cc 96       	adiw	r24, 0x3c	; 60
 15a:	a1 1d       	adc	r26, r1
 15c:	b1 1d       	adc	r27, r1
 15e:	08 95       	ret
	unsigned long gap;
	unsigned long delayTime;				// Determines how quickly buzzer should beep, close obj -> small delay -> fast beeping
											// far obj -> big delay -> slow beeping
	if (distance >= MAX_DISTANCE)
	{
		return 0;							// If the obj is at max distance or more, don't beep
 160:	80 e0       	ldi	r24, 0x00	; 0
 162:	90 e0       	ldi	r25, 0x00	; 0

	gap = slow - fast;						// Scales the beep delay based on distance
	delayTime = fast + (gap * (distance - 1)) / (MAX_DISTANCE - 1);

	return delayTime;
}
 164:	08 95       	ret

00000166 <waitMs>:

void waitMs(unsigned int ms)				// Custom millisecond wait function which allows for if waitMs(100), it does 100x 1 millisecond delays
{
	while (ms > 0)
 166:	00 97       	sbiw	r24, 0x00	; 0
 168:	41 f0       	breq	.+16     	; 0x17a <waitMs+0x14>
	#else
		//round up by default
		__ticks_dc = (uint32_t)(ceil(fabs(__tmp)));
	#endif

	__builtin_avr_delay_cycles(__ticks_dc);
 16a:	e7 e8       	ldi	r30, 0x87	; 135
 16c:	f3 e1       	ldi	r31, 0x13	; 19
 16e:	31 97       	sbiw	r30, 0x01	; 1
 170:	f1 f7       	brne	.-4      	; 0x16e <waitMs+0x8>
 172:	00 c0       	rjmp	.+0      	; 0x174 <waitMs+0xe>
 174:	00 00       	nop
	{
		_delay_ms(1);
		ms--;
 176:	01 97       	sbiw	r24, 0x01	; 1
	return delayTime;
}

void waitMs(unsigned int ms)				// Custom millisecond wait function which allows for if waitMs(100), it does 100x 1 millisecond delays
{
	while (ms > 0)
 178:	c1 f7       	brne	.-16     	; 0x16a <waitMs+0x4>
 17a:	08 95       	ret

0000017c <beep>:
		ms--;
	}
}

void beep(unsigned int delayTime)			// Triggers on and off the buzzer based on half the delay so if delayTime = 200, on for 100ms, off for 100ms
{
 17c:	cf 93       	push	r28
 17e:	df 93       	push	r29
	PORTB |= (1 << BUZZER_PIN);
 180:	29 9a       	sbi	0x05, 1	; 5
	waitMs(delayTime / 2);
 182:	ec 01       	movw	r28, r24
 184:	d6 95       	lsr	r29
 186:	c7 95       	ror	r28
 188:	ce 01       	movw	r24, r28
 18a:	0e 94 b3 00 	call	0x166	; 0x166 <waitMs>

	PORTB &= ~(1 << BUZZER_PIN);
 18e:	29 98       	cbi	0x05, 1	; 5
	waitMs(delayTime / 2);
 190:	ce 01       	movw	r24, r28
 192:	0e 94 b3 00 	call	0x166	; 0x166 <waitMs>
}
 196:	df 91       	pop	r29
 198:	cf 91       	pop	r28
 19a:	08 95       	ret

0000019c <main>:
int main()
{
	unsigned int distance;					// measured distance
	unsigned int delayTime;					// Time b/n beeps

	DDRB |= (1 << TRIG_PIN) | (1 << BUZZER_PIN);
 19c:	84 b1       	in	r24, 0x04	; 4
 19e:	8a 60       	ori	r24, 0x0A	; 10
 1a0:	84 b9       	out	0x04, r24	; 4
	DDRB &= ~( 1<< ECHO_PIN);
 1a2:	24 98       	cbi	0x04, 4	; 4
	PORTB |= (1 << TRIG_PIN);
 1a4:	2b 9a       	sbi	0x05, 3	; 5
	PORTB &= ~(1 << BUZZER_PIN);
 1a6:	29 98       	cbi	0x05, 1	; 5

	while (1)
	{
		distance = measureDistance();
 1a8:	0e 94 83 00 	call	0x106	; 0x106 <measureDistance>
		delayTime = getBeepDelay(distance);
 1ac:	0e 94 96 00 	call	0x12c	; 0x12c <getBeepDelay>

		if (delayTime == 0)
 1b0:	00 97       	sbiw	r24, 0x00	; 0
 1b2:	51 f4       	brne	.+20     	; 0x1c8 <main+0x2c>
 1b4:	2f e7       	ldi	r18, 0x7F	; 127
 1b6:	8a e1       	ldi	r24, 0x1A	; 26
 1b8:	96 e0       	ldi	r25, 0x06	; 6
 1ba:	21 50       	subi	r18, 0x01	; 1
 1bc:	80 40       	sbci	r24, 0x00	; 0
 1be:	90 40       	sbci	r25, 0x00	; 0
 1c0:	e1 f7       	brne	.-8      	; 0x1ba <main+0x1e>
 1c2:	00 c0       	rjmp	.+0      	; 0x1c4 <main+0x28>
 1c4:	00 00       	nop
 1c6:	f0 cf       	rjmp	.-32     	; 0x1a8 <main+0xc>
		{
			_delay_ms(100);
		}
		else
		{
			beep(delayTime);
 1c8:	0e 94 be 00 	call	0x17c	; 0x17c <beep>
 1cc:	ed cf       	rjmp	.-38     	; 0x1a8 <main+0xc>

000001ce <__udivmodsi4>:
 1ce:	a1 e2       	ldi	r26, 0x21	; 33
 1d0:	1a 2e       	mov	r1, r26
 1d2:	aa 1b       	sub	r26, r26
 1d4:	bb 1b       	sub	r27, r27
 1d6:	fd 01       	movw	r30, r26
 1d8:	0d c0       	rjmp	.+26     	; 0x1f4 <__udivmodsi4_ep>

000001da <__udivmodsi4_loop>:
 1da:	aa 1f       	adc	r26, r26
 1dc:	bb 1f       	adc	r27, r27
 1de:	ee 1f       	adc	r30, r30
 1e0:	ff 1f       	adc	r31, r31
 1e2:	a2 17       	cp	r26, r18
 1e4:	b3 07       	cpc	r27, r19
 1e6:	e4 07       	cpc	r30, r20
 1e8:	f5 07       	cpc	r31, r21
 1ea:	20 f0       	brcs	.+8      	; 0x1f4 <__udivmodsi4_ep>
 1ec:	a2 1b       	sub	r26, r18
 1ee:	b3 0b       	sbc	r27, r19
 1f0:	e4 0b       	sbc	r30, r20
 1f2:	f5 0b       	sbc	r31, r21

000001f4 <__udivmodsi4_ep>:
 1f4:	66 1f       	adc	r22, r22
 1f6:	77 1f       	adc	r23, r23
 1f8:	88 1f       	adc	r24, r24
 1fa:	99 1f       	adc	r25, r25
 1fc:	1a 94       	dec	r1
 1fe:	69 f7       	brne	.-38     	; 0x1da <__udivmodsi4_loop>
 200:	60 95       	com	r22
 202:	70 95       	com	r23
 204:	80 95       	com	r24
 206:	90 95       	com	r25
 208:	9b 01       	movw	r18, r22
 20a:	ac 01       	movw	r20, r24
 20c:	bd 01       	movw	r22, r26
 20e:	cf 01       	movw	r24, r30
 210:	08 95       	ret

00000212 <__umulhisi3>:
 212:	a2 9f       	mul	r26, r18
 214:	b0 01       	movw	r22, r0
 216:	b3 9f       	mul	r27, r19
 218:	c0 01       	movw	r24, r0
 21a:	a3 9f       	mul	r26, r19
 21c:	70 0d       	add	r23, r0
 21e:	81 1d       	adc	r24, r1
 220:	11 24       	eor	r1, r1
 222:	91 1d       	adc	r25, r1
 224:	b2 9f       	mul	r27, r18
 226:	70 0d       	add	r23, r0
 228:	81 1d       	adc	r24, r1
 22a:	11 24       	eor	r1, r1
 22c:	91 1d       	adc	r25, r1
 22e:	08 95       	ret

00000230 <_exit>:
 230:	f8 94       	cli

00000232 <__stop_program>:
 232:	ff cf       	rjmp	.-2      	; 0x232 <__stop_program>
